; Function Attrs: mustprogress uwtable
define hidden noundef i32 @_ZN3api7context10add_objectEPNS_6objectE(ptr noundef nonnull align 8 dereferenceable(3056) %0, ptr noundef %1) local_unnamed_addr #3 align 2 {
  %3 = alloca %struct._key_data, align 8
  tail call void @_ZN3api7context13flush_objectsEv(ptr noundef nonnull align 8 dereferenceable(3056) %0)
  %4 = getelementptr inbounds nuw i8, ptr %0, i64 1468
  %5 = load i32, ptr %4, align 4, !tbaa !13
  %6 = getelementptr inbounds nuw i8, ptr %0, i64 1480
  %7 = load ptr, ptr %6, align 8, !tbaa !16
  %8 = icmp eq ptr %7, null
  br i1 %8, label %_ZNK6vectorIjLb0EjE5emptyEv.exit.thread, label %_ZNK6vectorIjLb0EjE5emptyEv.exit

_ZNK6vectorIjLb0EjE5emptyEv.exit:                 ; preds = %2
  %9 = getelementptr inbounds i8, ptr %7, i64 -4
  %10 = load i32, ptr %9, align 4, !tbaa !19
  %11 = icmp eq i32 %10, 0
  br i1 %11, label %_ZNK6vectorIjLb0EjE5emptyEv.exit.thread, label %_ZN6vectorIjLb0EjE4backEv.exit

_ZN6vectorIjLb0EjE4backEv.exit:                   ; preds = %_ZNK6vectorIjLb0EjE5emptyEv.exit
  %12 = add i32 %10, -1
  %13 = zext i32 %12 to i64
  %14 = getelementptr inbounds nuw i32, ptr %7, i64 %13
  %15 = load i32, ptr %14, align 4, !tbaa !19
  store i32 %12, ptr %9, align 4, !tbaa !19
  br label %_ZNK6vectorIjLb0EjE5emptyEv.exit.thread

_ZNK6vectorIjLb0EjE5emptyEv.exit.thread:          ; preds = %2, %_ZN6vectorIjLb0EjE4backEv.exit, %_ZNK6vectorIjLb0EjE5emptyEv.exit
  %.0 = phi i32 [ %5, %_ZNK6vectorIjLb0EjE5emptyEv.exit ], [ %15, %_ZN6vectorIjLb0EjE4backEv.exit ], [ %5, %2 ]
  %16 = getelementptr inbounds nuw i8, ptr %0, i64 1456
  call void @llvm.lifetime.start.p0(i64 16, ptr nonnull %3) #28
  store i32 %.0, ptr %3, align 8, !tbaa !20
  %17 = getelementptr inbounds nuw i8, ptr %3, i64 8
  store ptr %1, ptr %17, align 8, !tbaa !23
  call void @_ZN14core_hashtableI17default_map_entryIjPN3api6objectEEN9table2mapIS4_6u_hash4u_eqE15entry_hash_procENS8_13entry_eq_procEE6insertEO9_key_dataIjS3_E(ptr noundef nonnull align 8 dereferenceable(24) %16, ptr noundef nonnull align 8 dereferenceable(16) %3)
  call void @llvm.lifetime.end.p0(i64 16, ptr nonnull %3) #28
  ret i32 %.0
}